target datalayout = "e-m:e-p270:32:32-p271:32:32-p272:64:64-i64:64-i128:128-f80:128-n8:16:32:64-S128"
target triple = "x86_64-pc-linux-gnu"

%struct.Ivy_Obj_t_ = type { i32, i32, i32, i32, ptr, ptr, ptr, ptr, ptr, ptr, ptr, ptr }

; Function Attrs: nounwind uwtable
define internal ptr @Ivy_Regular(ptr noundef %0) #0 {
  %2 = alloca ptr, align 8
  store ptr %0, ptr %2, align 8
  %3 = load ptr, ptr %2, align 8
  %4 = ptrtoint ptr %3 to i64
  %5 = and i64 %4, -2
  %6 = inttoptr i64 %5 to ptr
  ret ptr %6
}

; Function Attrs: nounwind uwtable
define internal ptr @Ivy_ObjFanin1(ptr noundef %0) #0 {
  %2 = alloca ptr, align 8
  store ptr %0, ptr %2, align 8
  %3 = load ptr, ptr %2, align 8
  %4 = getelementptr inbounds %struct.Ivy_Obj_t_, ptr %3, i32 0, i32 5
  %5 = load ptr, ptr %4, align 8
  %6 = call ptr @Ivy_Regular(ptr noundef %5)
  ret ptr %6
}

; Function Attrs: nounwind uwtable
define internal ptr @Ivy_ObjFanin0(ptr noundef %0) #0 {
  %2 = alloca ptr, align 8
  store ptr %0, ptr %2, align 8
  %3 = load ptr, ptr %2, align 8
  %4 = getelementptr inbounds %struct.Ivy_Obj_t_, ptr %3, i32 0, i32 4
  %5 = load ptr, ptr %4, align 8
  %6 = call ptr @Ivy_Regular(ptr noundef %5)
  ret ptr %6
}

; Function Attrs: nounwind uwtable
define internal i32 @Ivy_ObjIsBuf(ptr noundef %0) #0 {
  %2 = alloca ptr, align 8
  store ptr %0, ptr %2, align 8
  %3 = load ptr, ptr %2, align 8
  %4 = getelementptr inbounds %struct.Ivy_Obj_t_, ptr %3, i32 0, i32 2
  %5 = load i32, ptr %4, align 8
  %6 = and i32 %5, 15
  %7 = icmp eq i32 %6, 7
  %8 = zext i1 %7 to i32
  ret i32 %8
}

; Function Attrs: nounwind uwtable
define internal i32 @Ivy_ObjIsCi(ptr noundef %0) #0 {
  %2 = alloca ptr, align 8
  store ptr %0, ptr %2, align 8
  %3 = load ptr, ptr %2, align 8
  %4 = getelementptr inbounds %struct.Ivy_Obj_t_, ptr %3, i32 0, i32 2
  %5 = load i32, ptr %4, align 8
  %6 = and i32 %5, 15
  %7 = icmp eq i32 %6, 1
  br i1 %7, label %14, label %8

8:                                                ; preds = %1
  %9 = load ptr, ptr %2, align 8
  %10 = getelementptr inbounds %struct.Ivy_Obj_t_, ptr %9, i32 0, i32 2
  %11 = load i32, ptr %10, align 8
  %12 = and i32 %11, 15
  %13 = icmp eq i32 %12, 4
  br label %14

14:                                               ; preds = %8, %1
  %15 = phi i1 [ true, %1 ], [ %13, %8 ]
  %16 = zext i1 %15 to i32
  ret i32 %16
}

; Function Attrs: nounwind uwtable
define i32 @Ivy_ManFindBoolCut_rec(ptr noundef %0, ptr noundef %1, ptr noundef %2, ptr noundef %3, ptr noundef %4) #0 {
  %6 = alloca i32, align 4
  %7 = alloca ptr, align 8
  %8 = alloca ptr, align 8
  %9 = alloca ptr, align 8
  %10 = alloca ptr, align 8
  %11 = alloca ptr, align 8
  %12 = alloca i32, align 4
  %13 = alloca i32, align 4
  store ptr %0, ptr %7, align 8
  store ptr %1, ptr %8, align 8
  store ptr %2, ptr %9, align 8
  store ptr %3, ptr %10, align 8
  store ptr %4, ptr %11, align 8
  %14 = load ptr, ptr %8, align 8
  %15 = load ptr, ptr %11, align 8
  %16 = icmp eq ptr %14, %15
  br i1 %16, label %17, label %24

17:                                               ; preds = %5
  %18 = load ptr, ptr %9, align 8
  %19 = load ptr, ptr %8, align 8
  %20 = call i32 @Vec_PtrPushUnique(ptr noundef %18, ptr noundef %19)
  %21 = load ptr, ptr %10, align 8
  %22 = load ptr, ptr %8, align 8
  %23 = call i32 @Vec_PtrPushUnique(ptr noundef %21, ptr noundef %22)
  store i32 1, ptr %6, align 4
  br label %105

24:                                               ; preds = %5
  %25 = load ptr, ptr %8, align 8
  %26 = getelementptr inbounds %struct.Ivy_Obj_t_, ptr %25, i32 0, i32 2
  %27 = load i32, ptr %26, align 8
  %28 = lshr i32 %27, 4
  %29 = and i32 %28, 1
  %30 = icmp ne i32 %29, 0
  br i1 %30, label %31, label %32

31:                                               ; preds = %24
  store i32 0, ptr %6, align 4
  br label %105

32:                                               ; preds = %24
  %33 = load ptr, ptr %8, align 8
  %34 = call i32 @Ivy_ObjIsCi(ptr noundef %33)
  %35 = icmp ne i32 %34, 0
  br i1 %35, label %36, label %37

36:                                               ; preds = %32
  store i32 0, ptr %6, align 4
  br label %105

37:                                               ; preds = %32
  %38 = load ptr, ptr %8, align 8
  %39 = call i32 @Ivy_ObjIsBuf(ptr noundef %38)
  %40 = icmp ne i32 %39, 0
  br i1 %40, label %41, label %56

41:                                               ; preds = %37
  %42 = load ptr, ptr %7, align 8
  %43 = load ptr, ptr %8, align 8
  %44 = call ptr @Ivy_ObjFanin0(ptr noundef %43)
  %45 = load ptr, ptr %9, align 8
  %46 = load ptr, ptr %10, align 8
  %47 = load ptr, ptr %11, align 8
  %48 = call i32 @Ivy_ManFindBoolCut_rec(ptr noundef %42, ptr noundef %44, ptr noundef %45, ptr noundef %46, ptr noundef %47)
  store i32 %48, ptr %12, align 4
  %49 = load i32, ptr %12, align 4
  %50 = icmp ne i32 %49, 0
  br i1 %50, label %52, label %51

51:                                               ; preds = %41
  store i32 0, ptr %6, align 4
  br label %105

52:                                               ; preds = %41
  %53 = load ptr, ptr %10, align 8
  %54 = load ptr, ptr %8, align 8
  %55 = call i32 @Vec_PtrPushUnique(ptr noundef %53, ptr noundef %54)
  store i32 1, ptr %6, align 4
  br label %105

56:                                               ; preds = %37
  %57 = load ptr, ptr %7, align 8
  %58 = load ptr, ptr %8, align 8
  %59 = call ptr @Ivy_ObjFanin0(ptr noundef %58)
  %60 = load ptr, ptr %9, align 8
  %61 = load ptr, ptr %10, align 8
  %62 = load ptr, ptr %11, align 8
  %63 = call i32 @Ivy_ManFindBoolCut_rec(ptr noundef %57, ptr noundef %59, ptr noundef %60, ptr noundef %61, ptr noundef %62)
  store i32 %63, ptr %12, align 4
  %64 = load ptr, ptr %7, align 8
  %65 = load ptr, ptr %8, align 8
  %66 = call ptr @Ivy_ObjFanin1(ptr noundef %65)
  %67 = load ptr, ptr %9, align 8
  %68 = load ptr, ptr %10, align 8
  %69 = load ptr, ptr %11, align 8
  %70 = call i32 @Ivy_ManFindBoolCut_rec(ptr noundef %64, ptr noundef %66, ptr noundef %67, ptr noundef %68, ptr noundef %69)
  store i32 %70, ptr %13, align 4
  %71 = load i32, ptr %12, align 4
  %72 = icmp ne i32 %71, 0
  br i1 %72, label %77, label %73

73:                                               ; preds = %56
  %74 = load i32, ptr %13, align 4
  %75 = icmp ne i32 %74, 0
  br i1 %75, label %77, label %76

76:                                               ; preds = %73
  store i32 0, ptr %6, align 4
  br label %105

77:                                               ; preds = %73, %56
  %78 = load i32, ptr %12, align 4
  %79 = icmp ne i32 %78, 0
  br i1 %79, label %89, label %80

80:                                               ; preds = %77
  %81 = load ptr, ptr %9, align 8
  %82 = load ptr, ptr %8, align 8
  %83 = call ptr @Ivy_ObjFanin0(ptr noundef %82)
  %84 = call i32 @Vec_PtrPushUnique(ptr noundef %81, ptr noundef %83)
  %85 = load ptr, ptr %10, align 8
  %86 = load ptr, ptr %8, align 8
  %87 = call ptr @Ivy_ObjFanin0(ptr noundef %86)
  %88 = call i32 @Vec_PtrPushUnique(ptr noundef %85, ptr noundef %87)
  br label %89

89:                                               ; preds = %80, %77
  %90 = load i32, ptr %13, align 4
  %91 = icmp ne i32 %90, 0
  br i1 %91, label %101, label %92

92:                                               ; preds = %89
  %93 = load ptr, ptr %9, align 8
  %94 = load ptr, ptr %8, align 8
  %95 = call ptr @Ivy_ObjFanin1(ptr noundef %94)
  %96 = call i32 @Vec_PtrPushUnique(ptr noundef %93, ptr noundef %95)
  %97 = load ptr, ptr %10, align 8
  %98 = load ptr, ptr %8, align 8
  %99 = call ptr @Ivy_ObjFanin1(ptr noundef %98)
  %100 = call i32 @Vec_PtrPushUnique(ptr noundef %97, ptr noundef %99)
  br label %101

101:                                              ; preds = %92, %89
  %102 = load ptr, ptr %10, align 8
  %103 = load ptr, ptr %8, align 8
  %104 = call i32 @Vec_PtrPushUnique(ptr noundef %102, ptr noundef %103)
  store i32 1, ptr %6, align 4
  br label %105

105:                                              ; preds = %101, %76, %52, %51, %36, %31, %17
  %106 = load i32, ptr %6, align 4
  ret i32 %106
}