; Function Attrs: nounwind uwtable
define range(i32 0, 2) i32 @Ivy_ManFindBoolCut_rec(ptr noundef %0, ptr noundef %1, ptr noundef %2, ptr noundef %3, ptr noundef %4) local_unnamed_addr #0 {
  %6 = icmp eq ptr %1, %4
  br i1 %6, label %7, label %8

7:                                                ; preds = %5
  tail call fastcc void @Vec_PtrPushUnique(ptr noundef %2, ptr noundef %1)
  br label %.sink.split

8:                                                ; preds = %5
  %9 = getelementptr inbounds nuw i8, ptr %1, i64 8
  %10 = load i32, ptr %9, align 8
  %11 = and i32 %10, 16
  %.not = icmp eq i32 %11, 0
  br i1 %.not, label %12, label %49

12:                                               ; preds = %8
  %13 = and i32 %10, 15
  switch i32 %13, label %20 [
    i32 4, label %49
    i32 1, label %49
    i32 7, label %14
  ]

14:                                               ; preds = %12
  %15 = getelementptr i8, ptr %1, i64 16
  %.val48 = load ptr, ptr %15, align 8
  %16 = ptrtoint ptr %.val48 to i64
  %17 = and i64 %16, -2
  %18 = inttoptr i64 %17 to ptr
  %19 = tail call i32 @Ivy_ManFindBoolCut_rec(ptr noundef %0, ptr noundef %18, ptr noundef %2, ptr noundef %3, ptr noundef %4)
  %.not46 = icmp eq i32 %19, 0
  br i1 %.not46, label %49, label %.sink.split

20:                                               ; preds = %12
  %21 = getelementptr i8, ptr %1, i64 16
  %.val49 = load ptr, ptr %21, align 8
  %22 = ptrtoint ptr %.val49 to i64
  %23 = and i64 %22, -2
  %24 = inttoptr i64 %23 to ptr
  %25 = tail call i32 @Ivy_ManFindBoolCut_rec(ptr noundef %0, ptr noundef %24, ptr noundef %2, ptr noundef %3, ptr noundef %4)
  %26 = getelementptr i8, ptr %1, i64 24
  %.val52 = load ptr, ptr %26, align 8
  %27 = ptrtoint ptr %.val52 to i64
  %28 = and i64 %27, -2
  %29 = inttoptr i64 %28 to ptr
  %30 = tail call i32 @Ivy_ManFindBoolCut_rec(ptr noundef %0, ptr noundef %29, ptr noundef %2, ptr noundef %3, ptr noundef %4)
  %31 = icmp ne i32 %25, 0
  %32 = icmp ne i32 %30, 0
  %or.cond = select i1 %31, i1 true, i1 %32
  br i1 %or.cond, label %33, label %49

33:                                               ; preds = %20
  br i1 %31, label %41, label %34

34:                                               ; preds = %33
  %.val50 = load ptr, ptr %21, align 8
  %35 = ptrtoint ptr %.val50 to i64
  %36 = and i64 %35, -2
  %37 = inttoptr i64 %36 to ptr
  tail call fastcc void @Vec_PtrPushUnique(ptr noundef %2, ptr noundef %37)
  %.val51 = load ptr, ptr %21, align 8
  %38 = ptrtoint ptr %.val51 to i64
  %39 = and i64 %38, -2
  %40 = inttoptr i64 %39 to ptr
  tail call fastcc void @Vec_PtrPushUnique(ptr noundef %3, ptr noundef %40)
  br label %41

41:                                               ; preds = %34, %33
  br i1 %32, label %.sink.split, label %42

42:                                               ; preds = %41
  %.val53 = load ptr, ptr %26, align 8
  %43 = ptrtoint ptr %.val53 to i64
  %44 = and i64 %43, -2
  %45 = inttoptr i64 %44 to ptr
  tail call fastcc void @Vec_PtrPushUnique(ptr noundef %2, ptr noundef %45)
  %.val54 = load ptr, ptr %26, align 8
  %46 = ptrtoint ptr %.val54 to i64
  %47 = and i64 %46, -2
  %48 = inttoptr i64 %47 to ptr
  tail call fastcc void @Vec_PtrPushUnique(ptr noundef %3, ptr noundef %48)
  br label %.sink.split

.sink.split:                                      ; preds = %41, %42, %14, %7
  tail call fastcc void @Vec_PtrPushUnique(ptr noundef %3, ptr noundef %1)
  br label %49

49:                                               ; preds = %.sink.split, %12, %12, %20, %14, %8
  %.0 = phi i32 [ 0, %8 ], [ 0, %12 ], [ 0, %14 ], [ 0, %20 ], [ 0, %12 ], [ 1, %.sink.split ]
  ret i32 %.0
}